target datalayout = "e-m:e-p270:32:32-p271:32:32-p272:64:64-i64:64-i128:128-f80:128-n8:16:32:64-S128"
target triple = "x86_64-pc-linux-gnu"

%"struct.Luau::TypeLevel" = type { i32, i32 }
%"struct.Luau::FreeType" = type { i32, %"struct.Luau::TypeLevel", ptr, i8, ptr, ptr }
%class.anon = type { ptr }

; Function Attrs: mustprogress uwtable
define internal void @_ZN4Luau12_GLOBAL__N_110TypeCloner13cloneChildrenEPNS_8FreeTypeE(ptr noundef nonnull align 8 dereferenceable(76) %0, ptr noundef %1) #3 align 2 {
  %3 = alloca ptr, align 8
  %4 = alloca ptr, align 8
  store ptr %0, ptr %3, align 8, !tbaa !54
  store ptr %1, ptr %4, align 8, !tbaa !96
  %5 = load ptr, ptr %3, align 8
  %6 = load ptr, ptr %4, align 8, !tbaa !96
  %7 = getelementptr inbounds nuw %"struct.Luau::FreeType", ptr %6, i32 0, i32 4
  %8 = load ptr, ptr %7, align 8, !tbaa !801
  %9 = icmp ne ptr %8, null
  br i1 %9, label %10, label %17

10:                                               ; preds = %2
  %11 = load ptr, ptr %4, align 8, !tbaa !96
  %12 = getelementptr inbounds nuw %"struct.Luau::FreeType", ptr %11, i32 0, i32 4
  %13 = load ptr, ptr %12, align 8, !tbaa !801
  %14 = call noundef ptr @_ZN4Luau12_GLOBAL__N_110TypeCloner12shallowCloneEPKNS_4TypeE(ptr noundef nonnull align 8 dereferenceable(76) %5, ptr noundef %13)
  %15 = load ptr, ptr %4, align 8, !tbaa !96
  %16 = getelementptr inbounds nuw %"struct.Luau::FreeType", ptr %15, i32 0, i32 4
  store ptr %14, ptr %16, align 8, !tbaa !801
  br label %17

17:                                               ; preds = %10, %2
  %18 = load ptr, ptr %4, align 8, !tbaa !96
  %19 = getelementptr inbounds nuw %"struct.Luau::FreeType", ptr %18, i32 0, i32 5
  %20 = load ptr, ptr %19, align 8, !tbaa !802
  %21 = icmp ne ptr %20, null
  br i1 %21, label %22, label %29

22:                                               ; preds = %17
  %23 = load ptr, ptr %4, align 8, !tbaa !96
  %24 = getelementptr inbounds nuw %"struct.Luau::FreeType", ptr %23, i32 0, i32 5
  %25 = load ptr, ptr %24, align 8, !tbaa !802
  %26 = call noundef ptr @_ZN4Luau12_GLOBAL__N_110TypeCloner12shallowCloneEPKNS_4TypeE(ptr noundef nonnull align 8 dereferenceable(76) %5, ptr noundef %25)
  %27 = load ptr, ptr %4, align 8, !tbaa !96
  %28 = getelementptr inbounds nuw %"struct.Luau::FreeType", ptr %27, i32 0, i32 5
  store ptr %26, ptr %28, align 8, !tbaa !802
  br label %29

29:                                               ; preds = %22, %17
  ret void
}

; Function Attrs: inlinehint mustprogress uwtable
define internal void @_ZZN4Luau12_GLOBAL__N_110TypeCloner13cloneChildrenEPKNS_4TypeEENKUlOT_E_clIRNS_8FreeTypeEEEDaS6_(ptr noundef nonnull align 8 dereferenceable(8) %0, ptr noundef nonnull align 8 dereferenceable(48) %1) #7 align 2 {
  %3 = alloca ptr, align 8
  %4 = alloca ptr, align 8
  store ptr %0, ptr %3, align 8, !tbaa !228
  store ptr %1, ptr %4, align 8, !tbaa !96
  %5 = load ptr, ptr %3, align 8
  %6 = getelementptr inbounds nuw %class.anon, ptr %5, i32 0, i32 0
  %7 = load ptr, ptr %6, align 8, !tbaa !791
  %8 = load ptr, ptr %4, align 8, !tbaa !96
  call void @_ZN4Luau12_GLOBAL__N_110TypeCloner13cloneChildrenEPNS_8FreeTypeE(ptr noundef nonnull align 8 dereferenceable(76) %7, ptr noundef %8)
  ret void
}

; Function Attrs: mustprogress uwtable
define internal void @_ZN4LuauL8fnVisitVIZNS_12_GLOBAL__N_110TypeCloner13cloneChildrenEPKNS_4TypeEEUlOT_E_NS_8FreeTypeEEEvRS6_PNSt11conditionalIXsr3stdE10is_const_vIT0_EEKvvE4typeE(ptr noundef nonnull align 8 dereferenceable(8) %0, ptr noundef %1) #3 {
  %3 = alloca ptr, align 8
  %4 = alloca ptr, align 8
  store ptr %0, ptr %3, align 8, !tbaa !228
  store ptr %1, ptr %4, align 8, !tbaa !228
  %5 = load ptr, ptr %3, align 8, !tbaa !228
  %6 = load ptr, ptr %4, align 8, !tbaa !228
  call void @_ZZN4Luau12_GLOBAL__N_110TypeCloner13cloneChildrenEPKNS_4TypeEENKUlOT_E_clIRNS_8FreeTypeEEEDaS6_(ptr noundef nonnull align 8 dereferenceable(8) %5, ptr noundef nonnull align 8 dereferenceable(48) %6)
  ret void
}