; Function Attrs: mustprogress uwtable
define internal void @_ZN4LuauL8fnVisitVIZNS_12_GLOBAL__N_110TypeCloner13cloneChildrenEPKNS_4TypeEEUlOT_E_NS_8FreeTypeEEEvRS6_PNSt11conditionalIXsr3stdE10is_const_vIT0_EEKvvE4typeE(ptr noundef nonnull readonly align 8 captures(none) dereferenceable(8) %0, ptr noundef captures(none) %1) #2 {
  %.val = load ptr, ptr %0, align 8, !tbaa !335
  %3 = getelementptr inbounds nuw i8, ptr %1, i64 32
  %4 = load ptr, ptr %3, align 8, !tbaa !342
  %.not.i.i = icmp eq ptr %4, null
  br i1 %.not.i.i, label %7, label %5

5:                                                ; preds = %2
  %6 = tail call fastcc noundef ptr @_ZN4Luau12_GLOBAL__N_110TypeCloner12shallowCloneEPKNS_4TypeE(ptr noundef nonnull align 8 dereferenceable(76) %.val, ptr noundef nonnull %4)
  store ptr %6, ptr %3, align 8, !tbaa !342
  br label %7

7:                                                ; preds = %5, %2
  %8 = getelementptr inbounds nuw i8, ptr %1, i64 40
  %9 = load ptr, ptr %8, align 8, !tbaa !343
  %.not8.i.i = icmp eq ptr %9, null
  br i1 %.not8.i.i, label %_ZZN4Luau12_GLOBAL__N_110TypeCloner13cloneChildrenEPKNS_4TypeEENKUlOT_E_clIRNS_8FreeTypeEEEDaS6_.exit, label %10

10:                                               ; preds = %7
  %11 = tail call fastcc noundef ptr @_ZN4Luau12_GLOBAL__N_110TypeCloner12shallowCloneEPKNS_4TypeE(ptr noundef nonnull align 8 dereferenceable(76) %.val, ptr noundef nonnull %9)
  store ptr %11, ptr %8, align 8, !tbaa !343
  br label %_ZZN4Luau12_GLOBAL__N_110TypeCloner13cloneChildrenEPKNS_4TypeEENKUlOT_E_clIRNS_8FreeTypeEEEDaS6_.exit

_ZZN4Luau12_GLOBAL__N_110TypeCloner13cloneChildrenEPKNS_4TypeEENKUlOT_E_clIRNS_8FreeTypeEEEDaS6_.exit: ; preds = %7, %10
  ret void
}